(lp0
(F-6.0
F-5.973053892215568
tp1
a(F-5.85
F-5.823353293413174
tp2
a(F-5.7
F-5.673652694610778
tp3
a(F-5.55
F-5.523952095808383
tp4
a(F-5.4
F-5.3742514970059885
tp5
a(F-5.25
F-5.224550898203592
tp6
a(F-5.1
F-5.074850299401197
tp7
a(F-4.95
F-4.925149700598803
tp8
a(F-4.8
F-4.775449101796407
tp9
a(F-4.65
F-4.625748502994012
tp10
a(F-4.5
F-4.476047904191617
tp11
a(F-4.35
F-4.326347305389221
tp12
a(F-4.2
F-4.176646706586826
tp13
a(F-4.05
F-4.026946107784431
tp14
a(F-3.9
F-3.877245508982035
tp15
a(F-3.75
F-3.727544910179641
tp16
a(F-3.6
F-3.577844311377245
tp17
a(F-3.45
F-3.428143712574851
tp18
a(F-3.3
F-3.278443113772455
tp19
a(F-3.1500000000000004
F-3.1287425149700594
tp20
a(F-3.0
F-2.979041916167665
tp21
a(F-2.8499999999999996
F-2.8293413173652695
tp22
a(F-2.7
F-2.6796407185628732
tp23
a(F-2.55
F-2.5299401197604796
tp24
a(F-2.4000000000000004
F-2.3802395209580833
tp25
a(F-2.25
F-2.2305389221556897
tp26
a(F-2.0999999999999996
F-2.0808383233532934
tp27
a(F-1.9500000000000002
F-1.9311377245508972
tp28
a(F-1.7999999999999998
F-1.7814371257485035
tp29
a(F-1.6500000000000004
F-1.6317365269461073
tp30
a(F-1.5
F-1.4820359281437119
tp31
a(F-1.3499999999999996
F-1.3323353293413174
tp32
a(F-1.2000000000000002
F-1.182634730538922
tp33
a(F-1.0499999999999998
F-1.0329341317365275
tp34
a(F-0.9000000000000004
F-0.8832335329341321
tp35
a(F-0.75
F-0.7335329341317358
tp36
a(F-0.5999999999999996
F-0.5838323353293422
tp37
a(F-0.4500000000000002
F-0.4341317365269459
tp38
a(F-0.2999999999999998
F-0.28443113772454964
tp39
a(F-0.15000000000000036
F-0.13473053892215603
tp40
a(F0.0
F0.01497005988024025
tp41
a(F0.0
F0.16467065868263386
tp42
a(F0.0
F0.31437125748503014
tp43
a(F0.0
F0.46407185628742553
tp44
a(F0.0
F0.6137724550898209
tp45
a(F0.0
F0.7634730538922163
tp46
a(F0.0
F0.9131736526946099
tp47
a(F0.0
F1.0628742514970053
tp48
a(F0.0
F1.2125748502994007
tp49
a(F0.0
F1.3622754491017979
tp50
a(F0.0
F1.5119760479041915
tp51
a(F0.0
F1.661676646706585
tp52
a(F0.0
F1.8113772455089823
tp53
a(F0.0
F1.9610778443113777
tp54
a(F0.0
F2.110778443113773
tp55
a(F0.0
F2.2604790419161667
tp56
a(F0.0
F2.410179640718564
tp57
a(F0.0
F2.5598802395209574
tp58
a(F-0.15000000000000036
F2.709580838323353
tp59
a(F-0.2999999999999998
F2.709580838323353
tp60
a(F-0.4500000000000002
F2.8592814371257482
tp61
a(F-0.5999999999999996
F2.8592814371257482
tp62
a(F-0.75
F3.0089820359281454
tp63
a(F-0.9000000000000004
F3.0089820359281454
tp64
a(F-1.0499999999999998
F3.0089820359281454
tp65
a(F-1.2000000000000002
F3.0089820359281454
tp66
a(F-1.3499999999999996
F3.0089820359281454
tp67
a(F-1.5
F3.0089820359281454
tp68
a(F-1.6500000000000004
F3.0089820359281454
tp69
a(F-1.7999999999999998
F3.0089820359281454
tp70
a(F-1.9500000000000002
F3.0089820359281454
tp71
a(F-2.0999999999999996
F3.0089820359281454
tp72
a(F-2.25
F3.158682634730539
tp73
a(F-2.4000000000000004
F3.158682634730539
tp74
a(F-2.55
F3.158682634730539
tp75
a(F-2.7
F3.158682634730539
tp76
a(F-2.8499999999999996
F3.158682634730539
tp77
a(F-3.0
F3.0089820359281454
tp78
a(F-3.1500000000000004
F2.8592814371257482
tp79
a(F-3.3
F2.709580838323353
tp80
a(F-3.45
F2.709580838323353
tp81
a(F-3.6
F2.8592814371257482
tp82
a(F-3.75
F2.8592814371257482
tp83
a(F-3.9
F2.709580838323353
tp84
a(F-4.05
F2.5598802395209574
tp85
a(F-4.2
F2.709580838323353
tp86
a(F-4.35
F2.5598802395209574
tp87
a(F-4.5
F2.5598802395209574
tp88
a(F-4.65
F2.410179640718564
tp89
a(F-4.8
F2.5598802395209574
tp90
a(F-4.95
F2.5598802395209574
tp91
a(F-5.1
F2.5598802395209574
tp92
a(F-5.25
F2.5598802395209574
tp93
a(F-5.4
F2.5598802395209574
tp94
a(F-5.55
F2.5598802395209574
tp95
a(F-5.55
F2.410179640718564
tp96
a(F-5.55
F2.2604790419161667
tp97
a(F-5.7
F2.410179640718564
tp98
a(F-5.85
F2.410179640718564
tp99
a(F-6.0
F2.5598802395209574
tp100
a(F-6.15
F2.709580838323353
tp101
a(F-6.15
F2.8592814371257482
tp102
a(F-6.15
F3.0089820359281454
tp103
a(F-6.15
F3.158682634730539
tp104
a(F-6.15
F3.3083832335329326
tp105
a(F-6.15
F3.45808383233533
tp106
a(F-6.0
F3.607784431137725
tp107
a(F-5.85
F3.7574850299401206
tp108
a(F-5.7
F3.907185628742514
tp109
a(F-5.55
F4.056886227544911
tp110
a(F-5.4
F4.206586826347305
tp111
a(F-5.25
F4.3562874251497
tp112
a(F-5.1
F4.505988023952096
tp113
a(F-4.95
F4.655688622754491
tp114
a(F-4.8
F4.8053892215568865
tp115
a(F-4.65
F4.95508982035928
tp116
a(F-4.5
F5.104790419161677
tp117
a(F-4.35
F5.254491017964073
tp118
a(F-4.2
F5.404191616766466
tp119
a(F-4.05
F5.553892215568862
tp120
a(F-3.9
F5.703592814371257
tp121
a(F-3.75
F5.8532934131736525
tp122
a(F-3.6
F6.002994011976048
tp123
a(F-3.45
F6.002994011976048
tp124
a(F-3.3
F6.002994011976048
tp125
a(F-3.1500000000000004
F6.002994011976048
tp126
a(F-3.0
F6.002994011976048
tp127
a(F-2.8499999999999996
F6.002994011976048
tp128
a(F-2.7
F6.002994011976048
tp129
a(F-2.55
F6.002994011976048
tp130
a(F-2.4000000000000004
F6.002994011976048
tp131
a(F-2.25
F6.002994011976048
tp132
a(F-2.0999999999999996
F6.002994011976048
tp133
a(F-1.9500000000000002
F6.002994011976048
tp134
a(F-1.7999999999999998
F6.002994011976048
tp135
a(F-1.6500000000000004
F6.002994011976048
tp136
a(F-1.5
F6.002994011976048
tp137
a(F-1.3499999999999996
F6.002994011976048
tp138
a(F-1.2000000000000002
F6.002994011976048
tp139
a(F-1.0499999999999998
F6.002994011976048
tp140
a(F-0.9000000000000004
F6.002994011976048
tp141
a(F-0.75
F6.002994011976048
tp142
a(F-0.5999999999999996
F6.002994011976048
tp143
a(F-0.4500000000000002
F6.002994011976048
tp144
a(F-0.2999999999999998
F6.002994011976048
tp145
a(F-0.15000000000000036
F6.002994011976048
tp146
a(F0.0
F6.002994011976048
tp147
a.