(lp0
(F-6.09375
F-6.0
tp1
a(F-5.9765625
F-5.812499999999999
tp2
a(F-5.859375
F-5.625
tp3
a(F-5.7421875
F-5.437500000000001
tp4
a(F-5.625
F-5.25
tp5
a(F-5.5078125
F-5.0625
tp6
a(F-5.390625
F-4.874999999999999
tp7
a(F-5.2734375
F-4.6875
tp8
a(F-5.15625
F-4.500000000000001
tp9
a(F-5.0390625
F-4.3125
tp10
a(F-4.921875
F-4.125
tp11
a(F-4.8046875
F-3.937499999999999
tp12
a(F-4.6875
F-3.75
tp13
a(F-4.5703125
F-3.562500000000001
tp14
a(F-4.453125
F-3.375
tp15
a(F-4.3359375
F-3.1875
tp16
a(F-4.21875
F-2.999999999999999
tp17
a(F-4.1015625
F-2.8125
tp18
a(F-3.984375
F-2.625000000000001
tp19
a(F-3.8671875
F-2.4375
tp20
a(F-3.75
F-2.25
tp21
a(F-3.6328125
F-2.062499999999999
tp22
a(F-3.515625
F-1.875
tp23
a(F-3.515625
F-1.6875000000000009
tp24
a(F-3.515625
F-1.5
tp25
a(F-3.515625
F-1.3125
tp26
a(F-3.515625
F-1.1249999999999991
tp27
a(F-3.515625
F-0.9375
tp28
a(F-3.515625
F-0.7500000000000009
tp29
a(F-3.515625
F-0.5625
tp30
a(F-3.515625
F-0.375
tp31
a(F-3.515625
F-0.1874999999999991
tp32
a(F-3.515625
F0.0
tp33
a(F-3.515625
F0.1874999999999991
tp34
a(F-3.515625
F0.375
tp35
a(F-3.515625
F0.5625
tp36
a(F-3.515625
F0.75
tp37
a(F-3.515625
F0.9375
tp38
a(F-3.515625
F1.125
tp39
a(F-3.515625
F1.3125
tp40
a(F-3.515625
F1.5
tp41
a(F-3.515625
F1.6875
tp42
a(F-3.515625
F1.875
tp43
a(F-3.515625
F2.0625
tp44
a(F-3.515625
F2.25
tp45
a(F-3.515625
F2.4375
tp46
a(F-3.515625
F2.625
tp47
a(F-3.515625
F2.8125
tp48
a(F-3.515625
F3.0
tp49
a(F-3.515625
F3.1875
tp50
a(F-3.515625
F3.375
tp51
a(F-3.515625
F3.5625
tp52
a(F-3.515625
F3.75
tp53
a(F-3.515625
F3.9375
tp54
a(F-3.515625
F4.125
tp55
a(F-3.515625
F4.3125
tp56
a(F-3.3984375
F4.5
tp57
a(F-3.28125
F4.6875
tp58
a(F-3.1640625
F4.875
tp59
a(F-3.046875
F5.0625
tp60
a(F-2.9296875
F5.25
tp61
a(F-2.8125
F5.4375
tp62
a(F-2.6953125
F5.625
tp63
a(F-2.578125
F5.8125
tp64
a(F-2.4609375
F6.0
tp65
a(F-2.34375
F6.1875
tp66
a(F-2.2265625
F6.1875
tp67
a(F-2.109375
F6.1875
tp68
a(F-1.9921875
F6.1875
tp69
a(F-1.875
F6.1875
tp70
a(F-1.7578125
F6.1875
tp71
a(F-1.640625
F6.1875
tp72
a(F-1.5234375
F6.1875
tp73
a(F-1.40625
F6.1875
tp74
a(F-1.2890625
F6.1875
tp75
a(F-1.171875
F6.1875
tp76
a(F-1.0546875
F6.1875
tp77
a(F-0.9375
F6.1875
tp78
a(F-0.8203125
F6.1875
tp79
a(F-0.703125
F6.1875
tp80
a(F-0.5859375
F6.1875
tp81
a(F-0.46875
F6.1875
tp82
a(F-0.3515625
F6.1875
tp83
a(F-0.234375
F6.1875
tp84
a(F-0.1171875
F6.1875
tp85
a(F0.0
F6.1875
tp86
a.