(lp0
(F0.0
F5.104790419161677
tp1
a(F-0.15000000000000036
F4.95508982035928
tp2
a(F-0.2999999999999998
F4.8053892215568865
tp3
a(F-0.4500000000000002
F4.655688622754491
tp4
a(F-0.5999999999999996
F4.505988023952096
tp5
a(F-0.75
F4.3562874251497
tp6
a(F-0.9000000000000004
F4.206586826347305
tp7
a(F-1.0499999999999998
F4.056886227544911
tp8
a(F-1.2000000000000002
F3.907185628742514
tp9
a(F-1.0499999999999998
F3.7574850299401206
tp10
a(F-0.9000000000000004
F3.7574850299401206
tp11
a(F-0.75
F3.7574850299401206
tp12
a(F-0.5999999999999996
F3.7574850299401206
tp13
a(F-0.4500000000000002
F3.7574850299401206
tp14
a(F-0.2999999999999998
F3.7574850299401206
tp15
a(F-0.15000000000000036
F3.7574850299401206
tp16
a(F0.0
F3.7574850299401206
tp17
a(F0.15000000000000036
F3.7574850299401206
tp18
a(F0.2999999999999998
F3.7574850299401206
tp19
a(F0.4500000000000002
F3.7574850299401206
tp20
a(F0.5999999999999996
F3.7574850299401206
tp21
a(F0.75
F3.7574850299401206
tp22
a(F0.9000000000000004
F3.7574850299401206
tp23
a(F1.0500000000000007
F3.7574850299401206
tp24
a(F1.1999999999999993
F3.7574850299401206
tp25
a(F1.3499999999999996
F3.7574850299401206
tp26
a(F1.5
F3.7574850299401206
tp27
a(F1.6500000000000004
F3.7574850299401206
tp28
a(F1.8000000000000007
F3.7574850299401206
tp29
a(F1.9499999999999993
F3.7574850299401206
tp30
a(F2.0999999999999996
F3.7574850299401206
tp31
a(F2.25
F3.7574850299401206
tp32
a(F2.4000000000000004
F3.7574850299401206
tp33
a(F2.5500000000000007
F3.7574850299401206
tp34
a(F2.6999999999999993
F3.7574850299401206
tp35
a(F2.8499999999999996
F3.7574850299401206
tp36
a(F3.0
F3.7574850299401206
tp37
a(F3.1500000000000004
F3.7574850299401206
tp38
a(F3.3000000000000007
F3.7574850299401206
tp39
a(F3.4499999999999993
F3.907185628742514
tp40
a(F3.5999999999999996
F3.907185628742514
tp41
a(F3.75
F3.907185628742514
tp42
a(F3.9000000000000004
F4.056886227544911
tp43
a(F3.75
F4.206586826347305
tp44
a(F3.9000000000000004
F4.3562874251497
tp45
a(F3.9000000000000004
F4.505988023952096
tp46
a(F4.050000000000001
F4.655688622754491
tp47
a(F4.050000000000001
F4.8053892215568865
tp48
a(F4.199999999999999
F4.8053892215568865
tp49
a(F4.35
F4.8053892215568865
tp50
a(F4.199999999999999
F4.95508982035928
tp51
a(F4.199999999999999
F5.104790419161677
tp52
a(F4.35
F5.254491017964073
tp53
a(F4.5
F5.254491017964073
tp54
a(F4.65
F5.254491017964073
tp55
a(F4.800000000000001
F5.404191616766466
tp56
a(F4.800000000000001
F5.553892215568862
tp57
a(F4.65
F5.703592814371257
tp58
a(F4.65
F5.8532934131736525
tp59
a(F4.65
F6.002994011976048
tp60
a(F4.5
F6.152694610778443
tp61
a(F4.35
F6.302395209580839
tp62
a(F4.199999999999999
F6.302395209580839
tp63
a(F4.050000000000001
F6.302395209580839
tp64
a(F3.9000000000000004
F6.302395209580839
tp65
a(F3.75
F6.302395209580839
tp66
a(F3.5999999999999996
F6.302395209580839
tp67
a(F3.4499999999999993
F6.302395209580839
tp68
a(F3.3000000000000007
F6.302395209580839
tp69
a(F3.1500000000000004
F6.302395209580839
tp70
a(F3.0
F6.302395209580839
tp71
a(F2.8499999999999996
F6.302395209580839
tp72
a(F2.6999999999999993
F6.302395209580839
tp73
a(F2.5500000000000007
F6.302395209580839
tp74
a(F2.4000000000000004
F6.302395209580839
tp75
a(F2.25
F6.302395209580839
tp76
a(F2.0999999999999996
F6.302395209580839
tp77
a(F1.9499999999999993
F6.302395209580839
tp78
a(F1.8000000000000007
F6.302395209580839
tp79
a(F1.6500000000000004
F6.302395209580839
tp80
a(F1.5
F6.302395209580839
tp81
a(F1.3499999999999996
F6.302395209580839
tp82
a(F1.1999999999999993
F6.302395209580839
tp83
a(F1.0500000000000007
F6.302395209580839
tp84
a(F0.9000000000000004
F6.302395209580839
tp85
a(F0.75
F6.302395209580839
tp86
a(F0.5999999999999996
F6.302395209580839
tp87
a(F0.4500000000000002
F6.302395209580839
tp88
a(F0.2999999999999998
F6.302395209580839
tp89
a(F0.15000000000000036
F6.302395209580839
tp90
a(F0.0
F6.302395209580839
tp91
a(F-0.15000000000000036
F6.302395209580839
tp92
a(F-0.2999999999999998
F6.302395209580839
tp93
a(F-0.4500000000000002
F6.302395209580839
tp94
a(F-0.5999999999999996
F6.302395209580839
tp95
a(F-0.75
F6.302395209580839
tp96
a(F-0.9000000000000004
F6.302395209580839
tp97
a(F-1.0499999999999998
F6.302395209580839
tp98
a(F-1.2000000000000002
F6.302395209580839
tp99
a(F-1.3499999999999996
F6.302395209580839
tp100
a(F-1.5
F6.302395209580839
tp101
a(F-1.6500000000000004
F6.302395209580839
tp102
a(F-1.7999999999999998
F6.302395209580839
tp103
a(F-1.9500000000000002
F6.302395209580839
tp104
a(F-2.0999999999999996
F6.302395209580839
tp105
a(F-2.25
F6.302395209580839
tp106
a(F-2.4000000000000004
F6.302395209580839
tp107
a(F-2.55
F6.302395209580839
tp108
a(F-2.7
F6.302395209580839
tp109
a(F-2.8499999999999996
F6.302395209580839
tp110
a(F-3.0
F6.302395209580839
tp111
a(F-3.1500000000000004
F6.302395209580839
tp112
a(F-3.3
F6.302395209580839
tp113
a(F-3.45
F6.302395209580839
tp114
a(F-3.6
F6.302395209580839
tp115
a(F-3.75
F6.302395209580839
tp116
a(F-3.9
F6.302395209580839
tp117
a(F-4.05
F6.302395209580839
tp118
a(F-4.2
F6.302395209580839
tp119
a(F-4.35
F6.302395209580839
tp120
a(F-4.5
F6.302395209580839
tp121
a(F-4.65
F6.302395209580839
tp122
a(F-4.8
F6.302395209580839
tp123
a(F-4.95
F6.302395209580839
tp124
a(F-5.1
F6.302395209580839
tp125
a(F-5.25
F6.302395209580839
tp126
a(F-5.4
F6.302395209580839
tp127
a(F-5.55
F6.302395209580839
tp128
a(F-5.7
F6.302395209580839
tp129
a(F-5.85
F6.302395209580839
tp130
a(F-6.0
F6.152694610778443
tp131
a(F-6.0
F6.002994011976048
tp132
a(F-6.0
F5.8532934131736525
tp133
a(F-6.0
F5.703592814371257
tp134
a(F-6.0
F5.553892215568862
tp135
a(F-6.0
F5.404191616766466
tp136
a(F-6.0
F5.254491017964073
tp137
a(F-6.0
F5.104790419161677
tp138
a(F-6.0
F4.95508982035928
tp139
a(F-6.0
F4.8053892215568865
tp140
a(F-6.0
F4.655688622754491
tp141
a(F-6.0
F4.505988023952096
tp142
a(F-6.0
F4.3562874251497
tp143
a(F-6.0
F4.206586826347305
tp144
a(F-6.0
F4.056886227544911
tp145
a(F-6.0
F3.907185628742514
tp146
a(F-6.0
F3.7574850299401206
tp147
a(F-6.0
F3.607784431137725
tp148
a(F-6.0
F3.45808383233533
tp149
a(F-6.0
F3.3083832335329326
tp150
a(F-6.0
F3.158682634730539
tp151
a(F-6.0
F3.0089820359281454
tp152
a(F-6.0
F2.8592814371257482
tp153
a(F-6.0
F2.709580838323353
tp154
a(F-6.0
F2.5598802395209574
tp155
a(F-6.0
F2.410179640718564
tp156
a(F-6.0
F2.2604790419161667
tp157
a(F-6.0
F2.110778443113773
tp158
a(F-6.0
F1.9610778443113777
tp159
a(F-6.0
F1.8113772455089823
tp160
a(F-6.0
F1.661676646706585
tp161
a(F-6.0
F1.5119760479041915
tp162
a(F-6.0
F1.3622754491017979
tp163
a(F-5.85
F1.2125748502994007
tp164
a(F-5.7
F1.2125748502994007
tp165
a(F-5.55
F1.2125748502994007
tp166
a(F-5.4
F1.2125748502994007
tp167
a(F-5.25
F1.2125748502994007
tp168
a(F-5.1
F1.2125748502994007
tp169
a(F-4.95
F1.2125748502994007
tp170
a(F-4.8
F1.2125748502994007
tp171
a(F-4.65
F1.2125748502994007
tp172
a(F-4.5
F1.2125748502994007
tp173
a(F-4.35
F1.2125748502994007
tp174
a(F-4.2
F1.2125748502994007
tp175
a(F-4.05
F1.2125748502994007
tp176
a(F-3.9
F1.2125748502994007
tp177
a(F-3.75
F1.2125748502994007
tp178
a(F-3.6
F1.2125748502994007
tp179
a(F-3.45
F1.2125748502994007
tp180
a(F-3.3
F1.2125748502994007
tp181
a(F-3.1500000000000004
F1.2125748502994007
tp182
a(F-3.0
F1.2125748502994007
tp183
a(F-2.8499999999999996
F1.2125748502994007
tp184
a(F-2.7
F1.2125748502994007
tp185
a(F-2.55
F1.2125748502994007
tp186
a(F-2.4000000000000004
F1.2125748502994007
tp187
a(F-2.25
F1.2125748502994007
tp188
a(F-2.0999999999999996
F1.2125748502994007
tp189
a(F-1.9500000000000002
F1.2125748502994007
tp190
a(F-1.7999999999999998
F1.2125748502994007
tp191
a(F-1.6500000000000004
F1.2125748502994007
tp192
a(F-1.5
F1.2125748502994007
tp193
a(F-1.3499999999999996
F1.2125748502994007
tp194
a(F-1.2000000000000002
F1.2125748502994007
tp195
a(F-1.0499999999999998
F1.2125748502994007
tp196
a(F-0.9000000000000004
F1.2125748502994007
tp197
a(F-0.75
F1.2125748502994007
tp198
a(F-0.5999999999999996
F1.2125748502994007
tp199
a(F-0.4500000000000002
F1.2125748502994007
tp200
a(F-0.2999999999999998
F1.2125748502994007
tp201
a(F-0.15000000000000036
F1.2125748502994007
tp202
a(F0.0
F1.2125748502994007
tp203
a(F0.15000000000000036
F1.2125748502994007
tp204
a(F0.2999999999999998
F1.2125748502994007
tp205
a(F0.4500000000000002
F1.2125748502994007
tp206
a(F0.5999999999999996
F1.2125748502994007
tp207
a(F0.75
F1.2125748502994007
tp208
a(F0.9000000000000004
F1.2125748502994007
tp209
a(F1.0500000000000007
F1.2125748502994007
tp210
a(F1.1999999999999993
F1.2125748502994007
tp211
a(F1.3499999999999996
F1.3622754491017979
tp212
a(F1.5
F1.3622754491017979
tp213
a(F1.6500000000000004
F1.5119760479041915
tp214
a(F1.6500000000000004
F1.661676646706585
tp215
a(F1.8000000000000007
F1.661676646706585
tp216
a(F1.9499999999999993
F1.661676646706585
tp217
a(F2.0999999999999996
F1.661676646706585
tp218
a(F2.25
F1.5119760479041915
tp219
a(F2.4000000000000004
F1.3622754491017979
tp220
a(F2.4000000000000004
F1.5119760479041915
tp221
a(F2.5500000000000007
F1.3622754491017979
tp222
a(F2.6999999999999993
F1.3622754491017979
tp223
a(F2.8499999999999996
F1.2125748502994007
tp224
a(F2.8499999999999996
F1.3622754491017979
tp225
a(F3.0
F1.2125748502994007
tp226
a(F3.1500000000000004
F1.0628742514970053
tp227
a(F3.1500000000000004
F0.9131736526946099
tp228
a(F3.1500000000000004
F0.7634730538922163
tp229
a(F3.1500000000000004
F0.6137724550898209
tp230
a(F3.1500000000000004
F0.46407185628742553
tp231
a(F3.1500000000000004
F0.31437125748503014
tp232
a(F3.0
F0.16467065868263386
tp233
a(F2.8499999999999996
F0.01497005988024025
tp234
a(F2.6999999999999993
F-0.13473053892215603
tp235
a(F2.5500000000000007
F-0.28443113772454964
tp236
a(F2.4000000000000004
F-0.4341317365269459
tp237
a(F2.25
F-0.5838323353293422
tp238
a(F2.0999999999999996
F-0.7335329341317358
tp239
a(F1.9499999999999993
F-0.8832335329341321
tp240
a(F1.8000000000000007
F-1.0329341317365275
tp241
a(F1.6500000000000004
F-1.182634730538922
tp242
a(F1.5
F-1.3323353293413174
tp243
a(F1.3499999999999996
F-1.4820359281437119
tp244
a(F1.1999999999999993
F-1.6317365269461073
tp245
a(F1.0500000000000007
F-1.7814371257485035
tp246
a(F0.9000000000000004
F-1.9311377245508972
tp247
a(F0.75
F-2.0808383233532934
tp248
a(F0.5999999999999996
F-2.2305389221556897
tp249
a(F0.4500000000000002
F-2.3802395209580833
tp250
a(F0.2999999999999998
F-2.5299401197604796
tp251
a(F0.15000000000000036
F-2.6796407185628732
tp252
a(F0.0
F-2.8293413173652695
tp253
a(F-0.15000000000000036
F-2.979041916167665
tp254
a(F-0.2999999999999998
F-3.1287425149700594
tp255
a(F-0.4500000000000002
F-3.278443113772455
tp256
a(F-0.5999999999999996
F-3.428143712574851
tp257
a(F-0.75
F-3.577844311377245
tp258
a(F-0.9000000000000004
F-3.727544910179641
tp259
a(F-0.9000000000000004
F-3.877245508982035
tp260
a(F-0.9000000000000004
F-4.026946107784431
tp261
a(F-0.9000000000000004
F-4.176646706586826
tp262
a(F-0.9000000000000004
F-4.326347305389221
tp263
a(F-0.9000000000000004
F-4.476047904191617
tp264
a(F-0.9000000000000004
F-4.625748502994012
tp265
a(F-0.9000000000000004
F-4.775449101796407
tp266
a(F-0.9000000000000004
F-4.925149700598803
tp267
a(F-0.9000000000000004
F-5.074850299401197
tp268
a(F-1.0499999999999998
F-5.224550898203592
tp269
a(F-1.2000000000000002
F-5.3742514970059885
tp270
a(F-1.3499999999999996
F-5.523952095808383
tp271
a(F-1.5
F-5.673652694610778
tp272
a(F-1.6500000000000004
F-5.823353293413174
tp273
a(F-1.7999999999999998
F-5.973053892215568
tp274
a(F-1.9500000000000002
F-5.973053892215568
tp275
a(F-2.0999999999999996
F-5.973053892215568
tp276
a(F-2.25
F-5.973053892215568
tp277
a(F-2.4000000000000004
F-5.973053892215568
tp278
a(F-2.55
F-5.973053892215568
tp279
a(F-2.7
F-5.973053892215568
tp280
a(F-2.8499999999999996
F-5.973053892215568
tp281
a(F-3.0
F-5.973053892215568
tp282
a(F-3.1500000000000004
F-5.973053892215568
tp283
a(F-3.3
F-5.973053892215568
tp284
a(F-3.45
F-5.973053892215568
tp285
a(F-3.6
F-5.973053892215568
tp286
a(F-3.75
F-5.973053892215568
tp287
a(F-3.9
F-5.823353293413174
tp288
a(F-3.9
F-5.673652694610778
tp289
a(F-3.9
F-5.523952095808383
tp290
a(F-3.9
F-5.3742514970059885
tp291
a(F-3.9
F-5.224550898203592
tp292
a(F-3.9
F-5.074850299401197
tp293
a(F-3.9
F-4.925149700598803
tp294
a(F-3.9
F-4.775449101796407
tp295
a(F-3.9
F-4.625748502994012
tp296
a(F-3.9
F-4.476047904191617
tp297
a(F-3.9
F-4.326347305389221
tp298
a(F-3.9
F-4.176646706586826
tp299
a(F-3.9
F-4.026946107784431
tp300
a(F-3.75
F-3.877245508982035
tp301
a(F-3.75
F-3.727544910179641
tp302
a(F-3.9
F-3.577844311377245
tp303
a(F-3.9
F-3.428143712574851
tp304
a(F-3.75
F-3.278443113772455
tp305
a(F-3.9
F-3.1287425149700594
tp306
a(F-3.9
F-2.979041916167665
tp307
a(F-3.9
F-2.8293413173652695
tp308
a(F-3.9
F-2.6796407185628732
tp309
a(F-3.75
F-2.5299401197604796
tp310
a(F-3.9
F-2.3802395209580833
tp311
a(F-3.9
F-2.2305389221556897
tp312
a(F-4.05
F-2.0808383233532934
tp313
a(F-4.2
F-2.0808383233532934
tp314
a(F-4.35
F-2.0808383233532934
tp315
a(F-4.5
F-2.0808383233532934
tp316
a(F-4.65
F-2.0808383233532934
tp317
a(F-4.8
F-2.0808383233532934
tp318
a(F-4.95
F-2.2305389221556897
tp319
a(F-5.1
F-2.3802395209580833
tp320
a(F-5.25
F-2.5299401197604796
tp321
a(F-5.4
F-2.6796407185628732
tp322
a(F-5.55
F-2.8293413173652695
tp323
a(F-5.7
F-2.979041916167665
tp324
a(F-5.85
F-3.1287425149700594
tp325
a(F-6.0
F-3.278443113772455
tp326
a(F-6.0
F-3.428143712574851
tp327
a(F-6.0
F-3.577844311377245
tp328
a(F-6.0
F-3.727544910179641
tp329
a(F-6.0
F-3.877245508982035
tp330
a(F-6.0
F-4.026946107784431
tp331
a(F-6.0
F-4.176646706586826
tp332
a(F-6.0
F-4.326347305389221
tp333
a(F-6.0
F-4.476047904191617
tp334
a(F-6.0
F-4.625748502994012
tp335
a(F-6.0
F-4.775449101796407
tp336
a(F-6.0
F-4.925149700598803
tp337
a(F-6.0
F-5.074850299401197
tp338
a(F-6.0
F-5.224550898203592
tp339
a(F-6.0
F-5.3742514970059885
tp340
a(F-6.0
F-5.523952095808383
tp341
a(F-6.0
F-5.673652694610778
tp342
a(F-6.0
F-5.823353293413174
tp343
a(F-6.0
F-5.973053892215568
tp344
a.