(lp0
(F-6.0
F0.01497005988024025
tp1
a(F-5.85
F-0.13473053892215603
tp2
a(F-5.7
F-0.28443113772454964
tp3
a(F-5.55
F-0.4341317365269459
tp4
a(F-5.4
F-0.5838323353293422
tp5
a(F-5.25
F-0.7335329341317358
tp6
a(F-5.1
F-0.8832335329341321
tp7
a(F-4.95
F-1.0329341317365275
tp8
a(F-4.8
F-0.8832335329341321
tp9
a(F-4.8
F-0.7335329341317358
tp10
a(F-4.8
F-0.5838323353293422
tp11
a(F-4.8
F-0.4341317365269459
tp12
a(F-4.8
F-0.28443113772454964
tp13
a(F-4.8
F-0.13473053892215603
tp14
a(F-4.8
F0.01497005988024025
tp15
a(F-4.8
F0.16467065868263386
tp16
a(F-4.8
F0.31437125748503014
tp17
a(F-4.8
F0.46407185628742553
tp18
a(F-4.8
F0.6137724550898209
tp19
a(F-4.8
F0.7634730538922163
tp20
a(F-4.8
F0.9131736526946099
tp21
a(F-4.8
F1.0628742514970053
tp22
a(F-4.8
F1.2125748502994007
tp23
a(F-4.8
F1.3622754491017979
tp24
a(F-4.8
F1.5119760479041915
tp25
a(F-4.8
F1.661676646706585
tp26
a(F-4.8
F1.8113772455089823
tp27
a(F-4.8
F1.9610778443113777
tp28
a(F-4.8
F2.110778443113773
tp29
a(F-4.8
F2.2604790419161667
tp30
a(F-4.8
F2.410179640718564
tp31
a(F-4.8
F2.5598802395209574
tp32
a(F-4.8
F2.709580838323353
tp33
a(F-4.8
F2.8592814371257482
tp34
a(F-4.8
F3.0089820359281454
tp35
a(F-4.8
F3.158682634730539
tp36
a(F-4.8
F3.3083832335329326
tp37
a(F-4.8
F3.45808383233533
tp38
a(F-4.8
F3.607784431137725
tp39
a(F-4.8
F3.7574850299401206
tp40
a(F-4.8
F3.907185628742514
tp41
a(F-4.8
F4.056886227544911
tp42
a(F-4.8
F4.206586826347305
tp43
a(F-4.8
F4.3562874251497
tp44
a(F-4.8
F4.505988023952096
tp45
a(F-4.8
F4.655688622754491
tp46
a(F-4.65
F4.8053892215568865
tp47
a(F-4.5
F4.8053892215568865
tp48
a(F-4.35
F4.8053892215568865
tp49
a(F-4.2
F4.8053892215568865
tp50
a(F-4.05
F4.8053892215568865
tp51
a(F-3.9
F4.8053892215568865
tp52
a(F-3.75
F4.655688622754491
tp53
a(F-3.6
F4.505988023952096
tp54
a(F-3.45
F4.3562874251497
tp55
a(F-3.3
F4.206586826347305
tp56
a(F-3.1500000000000004
F4.056886227544911
tp57
a(F-3.0
F3.907185628742514
tp58
a(F-2.8499999999999996
F3.7574850299401206
tp59
a(F-2.7
F3.607784431137725
tp60
a(F-2.55
F3.45808383233533
tp61
a(F-2.4000000000000004
F3.3083832335329326
tp62
a(F-2.25
F3.158682634730539
tp63
a(F-2.0999999999999996
F3.0089820359281454
tp64
a(F-1.9500000000000002
F2.8592814371257482
tp65
a(F-1.7999999999999998
F2.709580838323353
tp66
a(F-1.6500000000000004
F2.5598802395209574
tp67
a(F-1.5
F2.410179640718564
tp68
a(F-1.3499999999999996
F2.410179640718564
tp69
a(F-1.2000000000000002
F2.410179640718564
tp70
a(F-1.0499999999999998
F2.410179640718564
tp71
a(F-0.9000000000000004
F2.410179640718564
tp72
a(F-0.75
F2.410179640718564
tp73
a(F-0.5999999999999996
F2.410179640718564
tp74
a(F-0.4500000000000002
F2.410179640718564
tp75
a(F-0.2999999999999998
F2.410179640718564
tp76
a(F-0.15000000000000036
F2.2604790419161667
tp77
a(F0.0
F2.110778443113773
tp78
a(F0.15000000000000036
F1.9610778443113777
tp79
a(F0.2999999999999998
F1.8113772455089823
tp80
a(F0.4500000000000002
F1.661676646706585
tp81
a(F0.5999999999999996
F1.5119760479041915
tp82
a(F0.75
F1.3622754491017979
tp83
a(F0.9000000000000004
F1.2125748502994007
tp84
a(F1.0500000000000007
F1.0628742514970053
tp85
a(F1.1999999999999993
F0.9131736526946099
tp86
a(F1.3499999999999996
F0.7634730538922163
tp87
a(F1.5
F0.6137724550898209
tp88
a(F1.6500000000000004
F0.46407185628742553
tp89
a(F1.8000000000000007
F0.31437125748503014
tp90
a(F1.9499999999999993
F0.16467065868263386
tp91
a(F2.0999999999999996
F0.01497005988024025
tp92
a(F2.25
F-0.13473053892215603
tp93
a(F2.4000000000000004
F-0.28443113772454964
tp94
a(F2.25
F-0.4341317365269459
tp95
a(F2.0999999999999996
F-0.4341317365269459
tp96
a(F1.9499999999999993
F-0.4341317365269459
tp97
a(F1.8000000000000007
F-0.4341317365269459
tp98
a(F1.6500000000000004
F-0.4341317365269459
tp99
a(F1.5
F-0.4341317365269459
tp100
a(F1.3499999999999996
F-0.4341317365269459
tp101
a(F1.1999999999999993
F-0.4341317365269459
tp102
a(F1.0500000000000007
F-0.4341317365269459
tp103
a(F0.9000000000000004
F-0.4341317365269459
tp104
a(F0.75
F-0.4341317365269459
tp105
a(F0.5999999999999996
F-0.4341317365269459
tp106
a(F0.4500000000000002
F-0.4341317365269459
tp107
a(F0.2999999999999998
F-0.28443113772454964
tp108
a(F0.15000000000000036
F-0.4341317365269459
tp109
a(F0.15000000000000036
F-0.28443113772454964
tp110
a(F0.0
F-0.4341317365269459
tp111
a(F-0.15000000000000036
F-0.4341317365269459
tp112
a(F-0.2999999999999998
F-0.4341317365269459
tp113
a(F-0.4500000000000002
F-0.4341317365269459
tp114
a(F-0.5999999999999996
F-0.4341317365269459
tp115
a(F-0.75
F-0.4341317365269459
tp116
a(F-0.9000000000000004
F-0.4341317365269459
tp117
a(F-1.0499999999999998
F-0.28443113772454964
tp118
a(F-1.2000000000000002
F-0.4341317365269459
tp119
a(F-1.3499999999999996
F-0.5838323353293422
tp120
a(F-1.3499999999999996
F-0.7335329341317358
tp121
a(F-1.3499999999999996
F-0.8832335329341321
tp122
a(F-1.3499999999999996
F-1.0329341317365275
tp123
a(F-1.3499999999999996
F-1.182634730538922
tp124
a(F-1.3499999999999996
F-1.3323353293413174
tp125
a(F-1.2000000000000002
F-1.4820359281437119
tp126
a(F-1.0499999999999998
F-1.6317365269461073
tp127
a(F-0.9000000000000004
F-1.7814371257485035
tp128
a(F-0.75
F-1.9311377245508972
tp129
a(F-0.5999999999999996
F-2.0808383233532934
tp130
a(F-0.4500000000000002
F-2.2305389221556897
tp131
a(F-0.2999999999999998
F-2.3802395209580833
tp132
a(F-0.15000000000000036
F-2.5299401197604796
tp133
a(F0.0
F-2.6796407185628732
tp134
a(F0.15000000000000036
F-2.8293413173652695
tp135
a(F0.2999999999999998
F-2.979041916167665
tp136
a(F0.4500000000000002
F-3.1287425149700594
tp137
a(F0.5999999999999996
F-3.278443113772455
tp138
a(F0.75
F-3.428143712574851
tp139
a(F0.9000000000000004
F-3.577844311377245
tp140
a(F1.0500000000000007
F-3.577844311377245
tp141
a(F1.1999999999999993
F-3.577844311377245
tp142
a(F1.3499999999999996
F-3.577844311377245
tp143
a(F1.5
F-3.577844311377245
tp144
a(F1.6500000000000004
F-3.577844311377245
tp145
a(F1.8000000000000007
F-3.577844311377245
tp146
a(F1.9499999999999993
F-3.577844311377245
tp147
a(F2.0999999999999996
F-3.577844311377245
tp148
a(F2.25
F-3.577844311377245
tp149
a(F2.4000000000000004
F-3.577844311377245
tp150
a(F2.5500000000000007
F-3.577844311377245
tp151
a(F2.6999999999999993
F-3.577844311377245
tp152
a(F2.8499999999999996
F-3.577844311377245
tp153
a(F3.0
F-3.577844311377245
tp154
a(F3.1500000000000004
F-3.577844311377245
tp155
a(F3.3000000000000007
F-3.577844311377245
tp156
a(F3.4499999999999993
F-3.577844311377245
tp157
a(F3.5999999999999996
F-3.577844311377245
tp158
a(F3.75
F-3.577844311377245
tp159
a(F3.9000000000000004
F-3.577844311377245
tp160
a(F4.050000000000001
F-3.727544910179641
tp161
a(F4.199999999999999
F-3.877245508982035
tp162
a(F4.35
F-4.026946107784431
tp163
a(F4.5
F-4.176646706586826
tp164
a(F4.65
F-4.326347305389221
tp165
a(F4.800000000000001
F-4.476047904191617
tp166
a(F4.949999999999999
F-4.625748502994012
tp167
a(F5.1
F-4.775449101796407
tp168
a(F5.25
F-4.925149700598803
tp169
a(F5.4
F-5.074850299401197
tp170
a(F5.550000000000001
F-5.224550898203592
tp171
a(F5.699999999999999
F-5.3742514970059885
tp172
a(F5.85
F-5.523952095808383
tp173
a(F6.0
F-5.673652694610778
tp174
a(F6.0
F-5.823353293413174
tp175
a(F6.0
F-5.973053892215568
tp176
a.