(lp0
(F-6.0
F6.002994011976048
tp1
a(F-5.85
F6.002994011976048
tp2
a(F-5.7
F6.002994011976048
tp3
a(F-5.55
F6.002994011976048
tp4
a(F-5.4
F6.002994011976048
tp5
a(F-5.25
F6.002994011976048
tp6
a(F-5.1
F5.8532934131736525
tp7
a(F-5.1
F5.703592814371257
tp8
a(F-5.1
F5.553892215568862
tp9
a(F-5.1
F5.404191616766466
tp10
a(F-5.1
F5.254491017964073
tp11
a(F-5.1
F5.104790419161677
tp12
a(F-5.1
F4.95508982035928
tp13
a(F-5.1
F4.8053892215568865
tp14
a(F-5.1
F4.655688622754491
tp15
a(F-5.1
F4.505988023952096
tp16
a(F-5.1
F4.3562874251497
tp17
a(F-5.1
F4.206586826347305
tp18
a(F-5.1
F4.056886227544911
tp19
a(F-5.1
F3.907185628742514
tp20
a(F-5.1
F3.7574850299401206
tp21
a(F-5.1
F3.607784431137725
tp22
a(F-5.1
F3.45808383233533
tp23
a(F-5.25
F3.607784431137725
tp24
a(F-5.25
F3.45808383233533
tp25
a(F-5.4
F3.3083832335329326
tp26
a(F-5.55
F3.158682634730539
tp27
a(F-5.55
F3.0089820359281454
tp28
a(F-5.55
F2.8592814371257482
tp29
a(F-5.7
F2.709580838323353
tp30
a(F-5.85
F2.5598802395209574
tp31
a(F-6.0
F2.5598802395209574
tp32
a(F-6.15
F2.5598802395209574
tp33
a(F-6.3
F2.410179640718564
tp34
a(F-6.45
F2.2604790419161667
tp35
a(F-6.45
F2.110778443113773
tp36
a(F-6.45
F1.9610778443113777
tp37
a(F-6.6
F1.8113772455089823
tp38
a(F-6.6
F1.661676646706585
tp39
a(F-6.75
F1.5119760479041915
tp40
a(F-6.9
F1.5119760479041915
tp41
a(F-6.9
F1.3622754491017979
tp42
a(F-6.9
F1.2125748502994007
tp43
a(F-6.75
F1.0628742514970053
tp44
a(F-6.75
F0.9131736526946099
tp45
a(F-6.75
F0.7634730538922163
tp46
a(F-6.9
F0.6137724550898209
tp47
a(F-6.75
F0.46407185628742553
tp48
a(F-6.9
F0.31437125748503014
tp49
a(F-7.05
F0.16467065868263386
tp50
a(F-6.9
F0.01497005988024025
tp51
a(F-6.75
F-0.13473053892215603
tp52
a(F-6.6
F-0.28443113772454964
tp53
a(F-6.75
F-0.28443113772454964
tp54
a(F-6.6
F-0.4341317365269459
tp55
a(F-6.75
F-0.4341317365269459
tp56
a(F-6.6
F-0.5838323353293422
tp57
a(F-6.6
F-0.7335329341317358
tp58
a(F-6.6
F-0.8832335329341321
tp59
a(F-6.6
F-1.0329341317365275
tp60
a(F-6.6
F-1.182634730538922
tp61
a(F-6.45
F-1.3323353293413174
tp62
a(F-6.45
F-1.4820359281437119
tp63
a(F-6.45
F-1.6317365269461073
tp64
a(F-6.6
F-1.7814371257485035
tp65
a(F-6.45
F-1.9311377245508972
tp66
a(F-6.6
F-2.0808383233532934
tp67
a(F-6.45
F-2.2305389221556897
tp68
a(F-6.45
F-2.3802395209580833
tp69
a(F-6.3
F-2.5299401197604796
tp70
a(F-6.3
F-2.6796407185628732
tp71
a(F-6.15
F-2.8293413173652695
tp72
a(F-6.0
F-2.979041916167665
tp73
a(F-5.85
F-3.1287425149700594
tp74
a(F-5.7
F-3.278443113772455
tp75
a(F-5.55
F-3.428143712574851
tp76
a(F-5.7
F-3.577844311377245
tp77
a(F-5.85
F-3.577844311377245
tp78
a(F-6.0
F-3.727544910179641
tp79
a(F-5.85
F-3.877245508982035
tp80
a(F-5.7
F-4.026946107784431
tp81
a(F-5.85
F-4.176646706586826
tp82
a(F-5.7
F-4.326347305389221
tp83
a(F-5.7
F-4.476047904191617
tp84
a(F-5.55
F-4.625748502994012
tp85
a(F-5.4
F-4.775449101796407
tp86
a(F-5.25
F-4.925149700598803
tp87
a(F-5.1
F-5.074850299401197
tp88
a(F-4.95
F-5.224550898203592
tp89
a(F-4.8
F-5.224550898203592
tp90
a(F-4.65
F-5.224550898203592
tp91
a(F-4.5
F-5.224550898203592
tp92
a(F-4.35
F-5.224550898203592
tp93
a(F-4.2
F-5.224550898203592
tp94
a(F-4.05
F-5.074850299401197
tp95
a(F-3.9
F-4.925149700598803
tp96
a(F-3.75
F-4.775449101796407
tp97
a(F-3.6
F-4.625748502994012
tp98
a(F-3.45
F-4.476047904191617
tp99
a(F-3.3
F-4.326347305389221
tp100
a(F-3.1500000000000004
F-4.176646706586826
tp101
a(F-3.0
F-4.026946107784431
tp102
a(F-2.8499999999999996
F-4.026946107784431
tp103
a(F-2.8499999999999996
F-4.176646706586826
tp104
a(F-2.7
F-4.326347305389221
tp105
a(F-2.7
F-4.476047904191617
tp106
a(F-2.7
F-4.625748502994012
tp107
a(F-2.55
F-4.775449101796407
tp108
a(F-2.4000000000000004
F-4.925149700598803
tp109
a(F-2.25
F-5.074850299401197
tp110
a(F-2.0999999999999996
F-5.224550898203592
tp111
a(F-1.9500000000000002
F-5.224550898203592
tp112
a(F-1.7999999999999998
F-5.224550898203592
tp113
a(F-1.6500000000000004
F-5.224550898203592
tp114
a(F-1.5
F-5.224550898203592
tp115
a(F-1.3499999999999996
F-5.224550898203592
tp116
a(F-1.2000000000000002
F-5.074850299401197
tp117
a(F-1.2000000000000002
F-4.925149700598803
tp118
a(F-1.2000000000000002
F-4.775449101796407
tp119
a(F-1.2000000000000002
F-4.625748502994012
tp120
a(F-1.2000000000000002
F-4.476047904191617
tp121
a(F-1.2000000000000002
F-4.326347305389221
tp122
a(F-1.2000000000000002
F-4.176646706586826
tp123
a(F-1.2000000000000002
F-4.026946107784431
tp124
a(F-1.2000000000000002
F-3.877245508982035
tp125
a(F-1.2000000000000002
F-3.727544910179641
tp126
a(F-1.2000000000000002
F-3.577844311377245
tp127
a(F-1.2000000000000002
F-3.428143712574851
tp128
a(F-1.2000000000000002
F-3.278443113772455
tp129
a(F-1.2000000000000002
F-3.1287425149700594
tp130
a(F-1.2000000000000002
F-2.979041916167665
tp131
a(F-1.2000000000000002
F-2.8293413173652695
tp132
a(F-1.2000000000000002
F-2.6796407185628732
tp133
a(F-1.2000000000000002
F-2.5299401197604796
tp134
a(F-1.2000000000000002
F-2.3802395209580833
tp135
a(F-1.2000000000000002
F-2.2305389221556897
tp136
a(F-1.2000000000000002
F-2.0808383233532934
tp137
a(F-1.2000000000000002
F-1.9311377245508972
tp138
a(F-1.2000000000000002
F-1.7814371257485035
tp139
a(F-1.2000000000000002
F-1.6317365269461073
tp140
a(F-1.2000000000000002
F-1.4820359281437119
tp141
a(F-1.2000000000000002
F-1.3323353293413174
tp142
a(F-1.0499999999999998
F-1.182634730538922
tp143
a(F-0.9000000000000004
F-1.3323353293413174
tp144
a(F-0.75
F-1.4820359281437119
tp145
a(F-0.5999999999999996
F-1.6317365269461073
tp146
a(F-0.75
F-1.7814371257485035
tp147
a(F-0.5999999999999996
F-1.9311377245508972
tp148
a(F-0.4500000000000002
F-1.9311377245508972
tp149
a(F-0.5999999999999996
F-2.0808383233532934
tp150
a(F-0.5999999999999996
F-2.2305389221556897
tp151
a(F-0.5999999999999996
F-2.3802395209580833
tp152
a(F-0.4500000000000002
F-2.5299401197604796
tp153
a(F-0.5999999999999996
F-2.6796407185628732
tp154
a(F-0.5999999999999996
F-2.8293413173652695
tp155
a(F-0.4500000000000002
F-2.979041916167665
tp156
a(F-0.5999999999999996
F-3.1287425149700594
tp157
a(F-0.4500000000000002
F-3.1287425149700594
tp158
a(F-0.5999999999999996
F-3.278443113772455
tp159
a(F-0.4500000000000002
F-3.278443113772455
tp160
a(F-0.4500000000000002
F-3.428143712574851
tp161
a(F-0.2999999999999998
F-3.577844311377245
tp162
a(F-0.4500000000000002
F-3.727544910179641
tp163
a(F-0.5999999999999996
F-3.877245508982035
tp164
a(F-0.75
F-4.026946107784431
tp165
a(F-0.5999999999999996
F-4.176646706586826
tp166
a(F-0.5999999999999996
F-4.326347305389221
tp167
a(F-0.4500000000000002
F-4.326347305389221
tp168
a(F-0.2999999999999998
F-4.326347305389221
tp169
a(F-0.15000000000000036
F-4.476047904191617
tp170
a(F0.0
F-4.625748502994012
tp171
a(F0.15000000000000036
F-4.625748502994012
tp172
a(F0.2999999999999998
F-4.775449101796407
tp173
a(F0.4500000000000002
F-4.925149700598803
tp174
a(F0.5999999999999996
F-5.074850299401197
tp175
a(F0.75
F-5.224550898203592
tp176
a(F0.9000000000000004
F-5.224550898203592
tp177
a(F1.0500000000000007
F-5.224550898203592
tp178
a(F1.1999999999999993
F-5.224550898203592
tp179
a(F1.3499999999999996
F-5.224550898203592
tp180
a(F1.5
F-5.224550898203592
tp181
a(F1.6500000000000004
F-5.074850299401197
tp182
a(F1.6500000000000004
F-4.925149700598803
tp183
a(F1.6500000000000004
F-4.775449101796407
tp184
a(F1.6500000000000004
F-4.625748502994012
tp185
a(F1.6500000000000004
F-4.476047904191617
tp186
a(F1.6500000000000004
F-4.326347305389221
tp187
a(F1.6500000000000004
F-4.176646706586826
tp188
a(F1.6500000000000004
F-4.026946107784431
tp189
a(F1.6500000000000004
F-3.877245508982035
tp190
a(F1.6500000000000004
F-3.727544910179641
tp191
a(F1.6500000000000004
F-3.577844311377245
tp192
a(F1.6500000000000004
F-3.428143712574851
tp193
a(F1.6500000000000004
F-3.278443113772455
tp194
a(F1.6500000000000004
F-3.1287425149700594
tp195
a(F1.6500000000000004
F-2.979041916167665
tp196
a(F1.6500000000000004
F-2.8293413173652695
tp197
a(F1.6500000000000004
F-2.6796407185628732
tp198
a(F1.6500000000000004
F-2.5299401197604796
tp199
a(F1.6500000000000004
F-2.3802395209580833
tp200
a(F1.6500000000000004
F-2.2305389221556897
tp201
a(F1.6500000000000004
F-2.0808383233532934
tp202
a(F1.6500000000000004
F-1.9311377245508972
tp203
a(F1.6500000000000004
F-1.7814371257485035
tp204
a(F1.6500000000000004
F-1.6317365269461073
tp205
a(F1.6500000000000004
F-1.4820359281437119
tp206
a(F1.6500000000000004
F-1.3323353293413174
tp207
a(F1.6500000000000004
F-1.182634730538922
tp208
a(F1.6500000000000004
F-1.0329341317365275
tp209
a(F1.6500000000000004
F-0.8832335329341321
tp210
a(F1.6500000000000004
F-0.7335329341317358
tp211
a(F1.6500000000000004
F-0.5838323353293422
tp212
a(F1.8000000000000007
F-0.4341317365269459
tp213
a(F1.9499999999999993
F-0.4341317365269459
tp214
a(F2.0999999999999996
F-0.4341317365269459
tp215
a(F2.25
F-0.4341317365269459
tp216
a(F2.4000000000000004
F-0.4341317365269459
tp217
a(F2.5500000000000007
F-0.4341317365269459
tp218
a(F2.6999999999999993
F-0.4341317365269459
tp219
a(F2.5500000000000007
F-0.5838323353293422
tp220
a(F2.6999999999999993
F-0.7335329341317358
tp221
a(F2.6999999999999993
F-0.8832335329341321
tp222
a(F2.8499999999999996
F-0.8832335329341321
tp223
a(F2.6999999999999993
F-1.0329341317365275
tp224
a(F2.6999999999999993
F-1.182634730538922
tp225
a(F2.6999999999999993
F-1.3323353293413174
tp226
a(F2.5500000000000007
F-1.4820359281437119
tp227
a(F2.4000000000000004
F-1.6317365269461073
tp228
a(F2.4000000000000004
F-1.7814371257485035
tp229
a(F2.4000000000000004
F-1.9311377245508972
tp230
a(F2.5500000000000007
F-1.9311377245508972
tp231
a(F2.6999999999999993
F-2.0808383233532934
tp232
a(F2.6999999999999993
F-2.2305389221556897
tp233
a(F2.6999999999999993
F-2.3802395209580833
tp234
a(F2.8499999999999996
F-2.3802395209580833
tp235
a(F3.0
F-2.5299401197604796
tp236
a(F3.0
F-2.6796407185628732
tp237
a(F2.8499999999999996
F-2.8293413173652695
tp238
a(F2.8499999999999996
F-2.979041916167665
tp239
a(F2.6999999999999993
F-3.1287425149700594
tp240
a(F2.6999999999999993
F-3.278443113772455
tp241
a(F2.5500000000000007
F-3.428143712574851
tp242
a(F2.5500000000000007
F-3.577844311377245
tp243
a(F2.6999999999999993
F-3.577844311377245
tp244
a(F2.8499999999999996
F-3.727544910179641
tp245
a(F3.0
F-3.727544910179641
tp246
a(F3.1500000000000004
F-3.877245508982035
tp247
a(F3.1500000000000004
F-4.026946107784431
tp248
a(F3.1500000000000004
F-4.176646706586826
tp249
a(F3.3000000000000007
F-4.326347305389221
tp250
a(F3.1500000000000004
F-4.476047904191617
tp251
a(F3.3000000000000007
F-4.476047904191617
tp252
a(F3.4499999999999993
F-4.625748502994012
tp253
a(F3.4499999999999993
F-4.775449101796407
tp254
a(F3.5999999999999996
F-4.925149700598803
tp255
a(F3.75
F-5.074850299401197
tp256
a(F3.9000000000000004
F-5.074850299401197
tp257
a(F4.050000000000001
F-5.074850299401197
tp258
a(F4.199999999999999
F-5.074850299401197
tp259
a(F4.35
F-5.074850299401197
tp260
a(F4.5
F-4.925149700598803
tp261
a(F4.5
F-4.775449101796407
tp262
a(F4.5
F-4.625748502994012
tp263
a(F4.5
F-4.476047904191617
tp264
a(F4.5
F-4.326347305389221
tp265
a(F4.5
F-4.176646706586826
tp266
a(F4.5
F-4.026946107784431
tp267
a(F4.5
F-3.877245508982035
tp268
a(F4.5
F-3.727544910179641
tp269
a(F4.5
F-3.577844311377245
tp270
a(F4.5
F-3.428143712574851
tp271
a(F4.5
F-3.278443113772455
tp272
a(F4.5
F-3.1287425149700594
tp273
a(F4.5
F-2.979041916167665
tp274
a(F4.5
F-2.8293413173652695
tp275
a(F4.5
F-2.6796407185628732
tp276
a(F4.5
F-2.5299401197604796
tp277
a(F4.5
F-2.3802395209580833
tp278
a(F4.5
F-2.2305389221556897
tp279
a(F4.5
F-2.0808383233532934
tp280
a(F4.5
F-1.9311377245508972
tp281
a(F4.5
F-1.7814371257485035
tp282
a(F4.5
F-1.6317365269461073
tp283
a(F4.5
F-1.4820359281437119
tp284
a(F4.5
F-1.3323353293413174
tp285
a(F4.5
F-1.182634730538922
tp286
a(F4.5
F-1.0329341317365275
tp287
a(F4.5
F-0.8832335329341321
tp288
a(F4.5
F-0.7335329341317358
tp289
a(F4.5
F-0.5838323353293422
tp290
a(F4.5
F-0.4341317365269459
tp291
a(F4.65
F-0.28443113772454964
tp292
a(F4.65
F-0.13473053892215603
tp293
a(F4.65
F0.01497005988024025
tp294
a(F4.65
F0.16467065868263386
tp295
a(F4.65
F0.31437125748503014
tp296
a(F4.65
F0.46407185628742553
tp297
a(F4.5
F0.6137724550898209
tp298
a(F4.35
F0.7634730538922163
tp299
a(F4.199999999999999
F0.9131736526946099
tp300
a(F4.050000000000001
F1.0628742514970053
tp301
a(F3.9000000000000004
F1.2125748502994007
tp302
a(F3.75
F1.3622754491017979
tp303
a(F3.5999999999999996
F1.5119760479041915
tp304
a(F3.4499999999999993
F1.661676646706585
tp305
a(F3.3000000000000007
F1.8113772455089823
tp306
a(F3.1500000000000004
F1.8113772455089823
tp307
a(F3.0
F1.8113772455089823
tp308
a(F2.8499999999999996
F1.8113772455089823
tp309
a(F2.6999999999999993
F1.8113772455089823
tp310
a(F2.5500000000000007
F1.8113772455089823
tp311
a(F2.4000000000000004
F1.8113772455089823
tp312
a(F2.25
F1.8113772455089823
tp313
a(F2.0999999999999996
F1.8113772455089823
tp314
a(F1.9499999999999993
F1.8113772455089823
tp315
a(F1.8000000000000007
F1.8113772455089823
tp316
a(F1.6500000000000004
F1.8113772455089823
tp317
a(F1.5
F1.8113772455089823
tp318
a(F1.3499999999999996
F1.8113772455089823
tp319
a(F1.1999999999999993
F1.8113772455089823
tp320
a(F1.0500000000000007
F1.8113772455089823
tp321
a(F0.9000000000000004
F1.8113772455089823
tp322
a(F0.75
F1.8113772455089823
tp323
a(F0.5999999999999996
F1.9610778443113777
tp324
a(F0.4500000000000002
F2.110778443113773
tp325
a(F0.2999999999999998
F2.2604790419161667
tp326
a(F0.15000000000000036
F2.410179640718564
tp327
a(F0.0
F2.5598802395209574
tp328
a(F-0.15000000000000036
F2.709580838323353
tp329
a(F-0.2999999999999998
F2.8592814371257482
tp330
a(F-0.4500000000000002
F3.0089820359281454
tp331
a(F-0.5999999999999996
F3.158682634730539
tp332
a(F-0.75
F3.3083832335329326
tp333
a(F-0.9000000000000004
F3.45808383233533
tp334
a(F-1.0499999999999998
F3.607784431137725
tp335
a(F-1.2000000000000002
F3.7574850299401206
tp336
a(F-1.0499999999999998
F3.907185628742514
tp337
a(F-0.9000000000000004
F3.907185628742514
tp338
a(F-0.75
F3.907185628742514
tp339
a(F-0.5999999999999996
F3.907185628742514
tp340
a(F-0.4500000000000002
F3.907185628742514
tp341
a(F-0.2999999999999998
F3.907185628742514
tp342
a(F-0.15000000000000036
F3.907185628742514
tp343
a(F0.0
F3.907185628742514
tp344
a(F0.15000000000000036
F3.907185628742514
tp345
a(F0.2999999999999998
F3.907185628742514
tp346
a(F0.4500000000000002
F3.7574850299401206
tp347
a(F0.5999999999999996
F3.607784431137725
tp348
a(F0.75
F3.7574850299401206
tp349
a(F0.9000000000000004
F3.907185628742514
tp350
a(F1.0500000000000007
F3.907185628742514
tp351
a(F1.1999999999999993
F3.907185628742514
tp352
a(F1.3499999999999996
F3.907185628742514
tp353
a(F1.3499999999999996
F3.7574850299401206
tp354
a(F1.3499999999999996
F3.607784431137725
tp355
a(F1.5
F3.607784431137725
tp356
a(F1.6500000000000004
F3.45808383233533
tp357
a(F1.8000000000000007
F3.607784431137725
tp358
a(F1.9499999999999993
F3.7574850299401206
tp359
a(F2.0999999999999996
F3.7574850299401206
tp360
a(F2.0999999999999996
F3.607784431137725
tp361
a(F2.25
F3.7574850299401206
tp362
a(F2.4000000000000004
F3.7574850299401206
tp363
a(F2.5500000000000007
F3.7574850299401206
tp364
a(F2.6999999999999993
F3.907185628742514
tp365
a(F2.8499999999999996
F3.907185628742514
tp366
a(F3.0
F3.907185628742514
tp367
a(F3.1500000000000004
F3.907185628742514
tp368
a(F3.3000000000000007
F3.907185628742514
tp369
a(F3.4499999999999993
F3.7574850299401206
tp370
a(F3.5999999999999996
F3.907185628742514
tp371
a(F3.75
F3.907185628742514
tp372
a(F3.9000000000000004
F3.7574850299401206
tp373
a(F4.050000000000001
F3.907185628742514
tp374
a(F4.199999999999999
F3.7574850299401206
tp375
a(F4.35
F3.907185628742514
tp376
a(F4.5
F4.056886227544911
tp377
a(F4.5
F4.206586826347305
tp378
a(F4.5
F4.3562874251497
tp379
a(F4.5
F4.505988023952096
tp380
a(F4.5
F4.655688622754491
tp381
a(F4.5
F4.8053892215568865
tp382
a(F4.35
F4.95508982035928
tp383
a(F4.199999999999999
F5.104790419161677
tp384
a(F4.050000000000001
F5.254491017964073
tp385
a(F3.9000000000000004
F5.404191616766466
tp386
a(F3.75
F5.553892215568862
tp387
a(F3.5999999999999996
F5.703592814371257
tp388
a(F3.4499999999999993
F5.8532934131736525
tp389
a(F3.3000000000000007
F6.002994011976048
tp390
a(F3.1500000000000004
F6.002994011976048
tp391
a(F3.0
F6.002994011976048
tp392
a(F2.8499999999999996
F6.002994011976048
tp393
a(F2.6999999999999993
F6.002994011976048
tp394
a(F2.5500000000000007
F6.002994011976048
tp395
a(F2.4000000000000004
F6.002994011976048
tp396
a(F2.25
F6.002994011976048
tp397
a(F2.0999999999999996
F6.002994011976048
tp398
a(F1.9499999999999993
F6.002994011976048
tp399
a(F1.8000000000000007
F6.002994011976048
tp400
a(F1.6500000000000004
F6.002994011976048
tp401
a(F1.5
F6.002994011976048
tp402
a(F1.3499999999999996
F6.002994011976048
tp403
a(F1.1999999999999993
F6.002994011976048
tp404
a(F1.0500000000000007
F6.002994011976048
tp405
a(F0.9000000000000004
F6.002994011976048
tp406
a(F0.75
F6.002994011976048
tp407
a(F0.5999999999999996
F6.002994011976048
tp408
a(F0.4500000000000002
F6.002994011976048
tp409
a(F0.2999999999999998
F6.002994011976048
tp410
a(F0.15000000000000036
F6.002994011976048
tp411
a(F0.0
F6.002994011976048
tp412
a(F-0.15000000000000036
F6.002994011976048
tp413
a(F-0.2999999999999998
F6.002994011976048
tp414
a(F-0.4500000000000002
F6.002994011976048
tp415
a(F-0.5999999999999996
F6.002994011976048
tp416
a(F-0.75
F6.002994011976048
tp417
a(F-0.9000000000000004
F6.002994011976048
tp418
a(F-1.0499999999999998
F6.002994011976048
tp419
a(F-1.2000000000000002
F6.002994011976048
tp420
a(F-1.3499999999999996
F6.002994011976048
tp421
a(F-1.5
F6.002994011976048
tp422
a(F-1.6500000000000004
F6.002994011976048
tp423
a(F-1.7999999999999998
F6.002994011976048
tp424
a(F-1.9500000000000002
F6.002994011976048
tp425
a(F-2.0999999999999996
F6.002994011976048
tp426
a.